target datalayout = "e-m:e-p270:32:32-p271:32:32-p272:64:64-i64:64-i128:128-f80:128-n8:16:32:64-S128"
target triple = "x86_64-pc-linux-gnu"

@_ZN13StackOverflow20_stack_red_zone_sizeE = hidden global i64 0, align 8
@_ZN13StackOverflow23_stack_yellow_zone_sizeE = hidden global i64 0, align 8
@_ZN13StackOverflow25_stack_reserved_zone_sizeE = hidden global i64 0, align 8
@_ZN13StackOverflow23_stack_shadow_zone_sizeE = hidden global i64 0, align 8
@StackRedPages = external global i64, align 8
@StackYellowPages = external global i64, align 8
@StackReservedPages = external global i64, align 8
@StackShadowPages = external global i64, align 8
@_ZN6OSInfo13_vm_page_sizeE = external global i64, align 8

; Function Attrs: mustprogress nounwind uwtable
define linkonce_odr hidden noundef i64 @_Z10align_downImmTnNSt9enable_ifIXcvbsr3std11is_integralIT_EE5valueEiE4typeELi0EES1_S1_T0_(i64 noundef %0, i64 noundef %1) #1 comdat {
  %3 = alloca i64, align 8
  %4 = alloca i64, align 8
  %5 = alloca i64, align 8
  store i64 %0, ptr %3, align 8
  store i64 %1, ptr %4, align 8
  %6 = load i64, ptr %3, align 8
  %7 = load i64, ptr %4, align 8
  %8 = call noundef i64 @_ZL14alignment_maskImTnNSt9enable_ifIXcvbsr3std11is_integralIT_EE5valueEiE4typeELi0EES1_S1_(i64 noundef %7)
  %9 = xor i64 %8, -1
  %10 = and i64 %6, %9
  store i64 %10, ptr %5, align 8
  %11 = load i64, ptr %5, align 8
  ret i64 %11
}

; Function Attrs: mustprogress nounwind uwtable
define linkonce_odr hidden noundef i64 @_Z12checked_castImmET_T0_(i64 noundef %0) #1 comdat {
  %2 = alloca i64, align 8
  %3 = alloca i64, align 8
  store i64 %0, ptr %2, align 8
  %4 = load i64, ptr %2, align 8
  store i64 %4, ptr %3, align 8
  %5 = load i64, ptr %3, align 8
  ret i64 %5
}

; Function Attrs: mustprogress nounwind uwtable
define internal noundef i64 @_ZL14alignment_maskImTnNSt9enable_ifIXcvbsr3std11is_integralIT_EE5valueEiE4typeELi0EES1_S1_(i64 noundef %0) #1 {
  %2 = alloca i64, align 8
  store i64 %0, ptr %2, align 8
  %3 = load i64, ptr %2, align 8
  %4 = sub i64 %3, 1
  ret i64 %4
}

; Function Attrs: mustprogress nounwind uwtable
define linkonce_odr hidden noundef i64 @_ZN6OSInfo12vm_page_sizeEv() #1 comdat align 2 {
  %1 = load i64, ptr @_ZN6OSInfo13_vm_page_sizeE, align 8
  ret i64 %1
}

; Function Attrs: mustprogress nounwind uwtable
define linkonce_odr hidden noundef i64 @_Z8align_upImmTnNSt9enable_ifIXcvbsr3std11is_integralIT_EE5valueEiE4typeELi0EES1_S1_T0_(i64 noundef %0, i64 noundef %1) #1 comdat {
  %3 = alloca i64, align 8
  %4 = alloca i64, align 8
  %5 = alloca i64, align 8
  store i64 %0, ptr %3, align 8
  store i64 %1, ptr %4, align 8
  %6 = load i64, ptr %3, align 8
  %7 = load i64, ptr %4, align 8
  %8 = call noundef i64 @_ZL14alignment_maskImTnNSt9enable_ifIXcvbsr3std11is_integralIT_EE5valueEiE4typeELi0EES1_S1_(i64 noundef %7)
  %9 = add i64 %6, %8
  %10 = call noundef i64 @_Z12checked_castImmET_T0_(i64 noundef %9)
  store i64 %10, ptr %5, align 8
  %11 = load i64, ptr %5, align 8
  %12 = load i64, ptr %4, align 8
  %13 = call noundef i64 @_Z10align_downImmTnNSt9enable_ifIXcvbsr3std11is_integralIT_EE5valueEiE4typeELi0EES1_S1_T0_(i64 noundef %11, i64 noundef %12)
  ret i64 %13
}

; Function Attrs: mustprogress nounwind uwtable
define linkonce_odr hidden noundef i64 @_ZN2os12vm_page_sizeEv() #1 comdat align 2 {
  %1 = call noundef i64 @_ZN6OSInfo12vm_page_sizeEv()
  ret i64 %1
}

; Function Attrs: mustprogress nounwind uwtable
define hidden void @_ZN13StackOverflow27initialize_stack_zone_sizesEv() #1 align 2 {
  %1 = alloca i64, align 8
  %2 = alloca i64, align 8
  %3 = call noundef i64 @_ZN2os12vm_page_sizeEv()
  store i64 %3, ptr %1, align 8
  store i64 4096, ptr %2, align 8
  %4 = load i64, ptr @StackRedPages, align 8
  %5 = load i64, ptr %2, align 8
  %6 = mul i64 %4, %5
  %7 = load i64, ptr %1, align 8
  %8 = call noundef i64 @_Z8align_upImmTnNSt9enable_ifIXcvbsr3std11is_integralIT_EE5valueEiE4typeELi0EES1_S1_T0_(i64 noundef %6, i64 noundef %7)
  store i64 %8, ptr @_ZN13StackOverflow20_stack_red_zone_sizeE, align 8
  %9 = load i64, ptr @StackYellowPages, align 8
  %10 = load i64, ptr %2, align 8
  %11 = mul i64 %9, %10
  %12 = load i64, ptr %1, align 8
  %13 = call noundef i64 @_Z8align_upImmTnNSt9enable_ifIXcvbsr3std11is_integralIT_EE5valueEiE4typeELi0EES1_S1_T0_(i64 noundef %11, i64 noundef %12)
  store i64 %13, ptr @_ZN13StackOverflow23_stack_yellow_zone_sizeE, align 8
  %14 = load i64, ptr @StackReservedPages, align 8
  %15 = load i64, ptr %2, align 8
  %16 = mul i64 %14, %15
  %17 = load i64, ptr %1, align 8
  %18 = call noundef i64 @_Z8align_upImmTnNSt9enable_ifIXcvbsr3std11is_integralIT_EE5valueEiE4typeELi0EES1_S1_T0_(i64 noundef %16, i64 noundef %17)
  store i64 %18, ptr @_ZN13StackOverflow25_stack_reserved_zone_sizeE, align 8
  %19 = load i64, ptr @StackShadowPages, align 8
  %20 = load i64, ptr %2, align 8
  %21 = mul i64 %19, %20
  %22 = load i64, ptr %1, align 8
  %23 = call noundef i64 @_Z8align_upImmTnNSt9enable_ifIXcvbsr3std11is_integralIT_EE5valueEiE4typeELi0EES1_S1_T0_(i64 noundef %21, i64 noundef %22)
  store i64 %23, ptr @_ZN13StackOverflow23_stack_shadow_zone_sizeE, align 8
  ret void
}