; Function Attrs: mustprogress nofree norecurse nosync nounwind willreturn memory(readwrite, argmem: none, inaccessiblemem: none) uwtable
define hidden void @_ZN13StackOverflow27initialize_stack_zone_sizesEv() local_unnamed_addr #0 align 2 {
  %1 = load i64, ptr @_ZN6OSInfo13_vm_page_sizeE, align 8
  %2 = load i64, ptr @StackRedPages, align 8
  %3 = shl i64 %2, 12
  %4 = add i64 %1, -1
  %5 = add i64 %4, %3
  %6 = sub i64 0, %1
  %7 = and i64 %5, %6
  store i64 %7, ptr @_ZN13StackOverflow20_stack_red_zone_sizeE, align 8
  %8 = load i64, ptr @StackYellowPages, align 8
  %9 = shl i64 %8, 12
  %10 = add i64 %4, %9
  %11 = and i64 %10, %6
  store i64 %11, ptr @_ZN13StackOverflow23_stack_yellow_zone_sizeE, align 8
  %12 = load i64, ptr @StackReservedPages, align 8
  %13 = shl i64 %12, 12
  %14 = add i64 %4, %13
  %15 = and i64 %14, %6
  store i64 %15, ptr @_ZN13StackOverflow25_stack_reserved_zone_sizeE, align 8
  %16 = load i64, ptr @StackShadowPages, align 8
  %17 = shl i64 %16, 12
  %18 = add i64 %4, %17
  %19 = and i64 %18, %6
  store i64 %19, ptr @_ZN13StackOverflow23_stack_shadow_zone_sizeE, align 8
  ret void
}